target datalayout = "e-m:e-p270:32:32-p271:32:32-p272:64:64-i64:64-i128:128-f80:128-n8:16:32:64-S128"
target triple = "x86_64-pc-linux-gnu"

%struct.TypeCacheEntry = type { i32, i32, i16, i8, i8, i8, i8, i32, i32, i32, i32, i32, i32, i32, i32, i32, i32, i32, i32, i32, i32, %struct.FmgrInfo, %struct.FmgrInfo, %struct.FmgrInfo, %struct.FmgrInfo, ptr, i64, ptr, i32, i32, %struct.FmgrInfo, %struct.FmgrInfo, %struct.FmgrInfo, ptr, i32, i32, ptr, i32, ptr, ptr }
%struct.FmgrInfo = type { ptr, i32, i16, i8, i8, i8, ptr, ptr, ptr }
%struct.TupleDescData = type { i32, i32, i32, i32, ptr, [0 x %struct.CompactAttribute] }
%struct.CompactAttribute = type { i32, i16, i8, i8, i8, i8, i8, i8, i8 }

@.str.3 = private unnamed_addr constant [11 x i8] c"typcache.c\00", align 1
@.str.6 = private unnamed_addr constant [25 x i8] c"type %s is not composite\00", align 1
@__func__.lookup_rowtype_tupdesc_domain = private unnamed_addr constant [30 x i8] c"lookup_rowtype_tupdesc_domain\00", align 1

; Function Attrs: nounwind uwtable
define dso_local ptr @lookup_rowtype_tupdesc_noerror(i32 noundef %0, i32 noundef %1, i1 noundef zeroext %2) #0 {
  %4 = alloca i32, align 4
  %5 = alloca i32, align 4
  %6 = alloca i8, align 1
  %7 = alloca ptr, align 8
  store i32 %0, ptr %4, align 4
  store i32 %1, ptr %5, align 4
  %8 = zext i1 %2 to i8
  store i8 %8, ptr %6, align 1
  call void @llvm.lifetime.start.p0(i64 8, ptr %7) #11
  %9 = load i32, ptr %4, align 4
  %10 = load i32, ptr %5, align 4
  %11 = load i8, ptr %6, align 1, !range !4, !noundef !5
  %12 = trunc i8 %11 to i1
  %13 = call ptr @lookup_rowtype_tupdesc_internal(i32 noundef %9, i32 noundef %10, i1 noundef zeroext %12)
  store ptr %13, ptr %7, align 8
  %14 = load ptr, ptr %7, align 8
  %15 = icmp ne ptr %14, null
  br i1 %15, label %16, label %27

16:                                               ; preds = %3
  br label %17

17:                                               ; preds = %16
  %18 = load ptr, ptr %7, align 8
  %19 = getelementptr inbounds nuw %struct.TupleDescData, ptr %18, i32 0, i32 3
  %20 = load i32, ptr %19, align 4
  %21 = icmp sge i32 %20, 0
  br i1 %21, label %22, label %24

22:                                               ; preds = %17
  %23 = load ptr, ptr %7, align 8
  call void @IncrTupleDescRefCount(ptr noundef %23)
  br label %24

24:                                               ; preds = %22, %17
  br label %25

25:                                               ; preds = %24
  br label %26

26:                                               ; preds = %25
  br label %27

27:                                               ; preds = %26, %3
  %28 = load ptr, ptr %7, align 8
  call void @llvm.lifetime.end.p0(i64 8, ptr %7) #11
  ret ptr %28
}

; Function Attrs: nounwind uwtable
define dso_local ptr @lookup_rowtype_tupdesc_domain(i32 noundef %0, i32 noundef %1, i1 noundef zeroext %2) #0 {
  %4 = alloca ptr, align 8
  %5 = alloca i32, align 4
  %6 = alloca i32, align 4
  %7 = alloca i8, align 1
  %8 = alloca ptr, align 8
  %9 = alloca ptr, align 8
  %10 = alloca i32, align 4
  store i32 %0, ptr %5, align 4
  store i32 %1, ptr %6, align 4
  %11 = zext i1 %2 to i8
  store i8 %11, ptr %7, align 1
  call void @llvm.lifetime.start.p0(i64 8, ptr %8) #11
  %12 = load i32, ptr %5, align 4
  %13 = icmp ne i32 %12, 2249
  br i1 %13, label %14, label %61

14:                                               ; preds = %3
  call void @llvm.lifetime.start.p0(i64 8, ptr %9) #11
  %15 = load i32, ptr %5, align 4
  %16 = call ptr @lookup_type_cache(i32 noundef %15, i32 noundef 4352)
  store ptr %16, ptr %9, align 8
  %17 = load ptr, ptr %9, align 8
  %18 = getelementptr inbounds nuw %struct.TypeCacheEntry, ptr %17, i32 0, i32 6
  %19 = load i8, ptr %18, align 1
  %20 = sext i8 %19 to i32
  %21 = icmp eq i32 %20, 100
  br i1 %21, label %22, label %32

22:                                               ; preds = %14
  %23 = load ptr, ptr %9, align 8
  %24 = getelementptr inbounds nuw %struct.TypeCacheEntry, ptr %23, i32 0, i32 34
  %25 = load i32, ptr %24, align 8
  %26 = load ptr, ptr %9, align 8
  %27 = getelementptr inbounds nuw %struct.TypeCacheEntry, ptr %26, i32 0, i32 35
  %28 = load i32, ptr %27, align 4
  %29 = load i8, ptr %7, align 1, !range !4, !noundef !5
  %30 = trunc i8 %29 to i1
  %31 = call ptr @lookup_rowtype_tupdesc_noerror(i32 noundef %25, i32 noundef %28, i1 noundef zeroext %30)
  store ptr %31, ptr %4, align 8
  store i32 1, ptr %10, align 4
  br label %58

32:                                               ; preds = %14
  %33 = load ptr, ptr %9, align 8
  %34 = getelementptr inbounds nuw %struct.TypeCacheEntry, ptr %33, i32 0, i32 25
  %35 = load ptr, ptr %34, align 8
  %36 = icmp eq ptr %35, null
  br i1 %36, label %37, label %54

37:                                               ; preds = %32
  %38 = load i8, ptr %7, align 1, !range !4, !noundef !5
  %39 = trunc i8 %38 to i1
  br i1 %39, label %54, label %40

40:                                               ; preds = %37
  br label %41

41:                                               ; preds = %40
  br i1 true, label %42, label %44

42:                                               ; preds = %41
  %43 = call zeroext i1 @errstart_cold(i32 noundef 21, ptr noundef null) #12
  br i1 %43, label %46, label %51

44:                                               ; preds = %41
  %45 = call zeroext i1 @errstart(i32 noundef 21, ptr noundef null)
  br i1 %45, label %46, label %51

46:                                               ; preds = %44, %42
  %47 = call i32 @errcode(i32 noundef 151027844)
  %48 = load i32, ptr %5, align 4
  %49 = call ptr @format_type_be(i32 noundef %48)
  %50 = call i32 (ptr, ...) @errmsg(ptr noundef @.str.6, ptr noundef %49)
  call void @errfinish(ptr noundef @.str.3, i32 noundef 1999, ptr noundef @__func__.lookup_rowtype_tupdesc_domain)
  br label %51

51:                                               ; preds = %46, %44, %42
  unreachable

52:                                               ; No predecessors!
  br label %53

53:                                               ; preds = %52
  br label %54

54:                                               ; preds = %53, %37, %32
  %55 = load ptr, ptr %9, align 8
  %56 = getelementptr inbounds nuw %struct.TypeCacheEntry, ptr %55, i32 0, i32 25
  %57 = load ptr, ptr %56, align 8
  store ptr %57, ptr %8, align 8
  store i32 0, ptr %10, align 4
  br label %58

58:                                               ; preds = %54, %22
  call void @llvm.lifetime.end.p0(i64 8, ptr %9) #11
  %59 = load i32, ptr %10, align 4
  switch i32 %59, label %83 [
    i32 0, label %60
  ]

60:                                               ; preds = %58
  br label %67

61:                                               ; preds = %3
  %62 = load i32, ptr %5, align 4
  %63 = load i32, ptr %6, align 4
  %64 = load i8, ptr %7, align 1, !range !4, !noundef !5
  %65 = trunc i8 %64 to i1
  %66 = call ptr @lookup_rowtype_tupdesc_internal(i32 noundef %62, i32 noundef %63, i1 noundef zeroext %65)
  store ptr %66, ptr %8, align 8
  br label %67

67:                                               ; preds = %61, %60
  %68 = load ptr, ptr %8, align 8
  %69 = icmp ne ptr %68, null
  br i1 %69, label %70, label %81

70:                                               ; preds = %67
  br label %71

71:                                               ; preds = %70
  %72 = load ptr, ptr %8, align 8
  %73 = getelementptr inbounds nuw %struct.TupleDescData, ptr %72, i32 0, i32 3
  %74 = load i32, ptr %73, align 4
  %75 = icmp sge i32 %74, 0
  br i1 %75, label %76, label %78

76:                                               ; preds = %71
  %77 = load ptr, ptr %8, align 8
  call void @IncrTupleDescRefCount(ptr noundef %77)
  br label %78

78:                                               ; preds = %76, %71
  br label %79

79:                                               ; preds = %78
  br label %80

80:                                               ; preds = %79
  br label %81

81:                                               ; preds = %80, %67
  %82 = load ptr, ptr %8, align 8
  store ptr %82, ptr %4, align 8
  store i32 1, ptr %10, align 4
  br label %83

83:                                               ; preds = %81, %58
  call void @llvm.lifetime.end.p0(i64 8, ptr %8) #11
  %84 = load ptr, ptr %4, align 8
  ret ptr %84
}