; Function Attrs: nounwind uwtable
define dso_local ptr @lookup_rowtype_tupdesc_domain(i32 noundef %0, i32 noundef %1, i1 noundef zeroext %2) local_unnamed_addr #0 {
  %.not = icmp eq i32 %0, 2249
  br i1 %.not, label %27, label %4

4:                                                ; preds = %3
  %5 = tail call ptr @lookup_type_cache(i32 noundef %0, i32 noundef 4352)
  %6 = getelementptr inbounds nuw i8, ptr %5, i64 13
  %7 = load i8, ptr %6, align 1
  %.not23 = icmp eq i8 %7, 100
  br i1 %.not23, label %8, label %18

8:                                                ; preds = %4
  %9 = getelementptr inbounds nuw i8, ptr %5, i64 448
  %10 = load i32, ptr %9, align 8
  %11 = getelementptr inbounds nuw i8, ptr %5, i64 452
  %12 = load i32, ptr %11, align 4
  %13 = tail call fastcc ptr @lookup_rowtype_tupdesc_internal(i32 noundef %10, i32 noundef %12, i1 noundef zeroext %2)
  %.not.i = icmp eq ptr %13, null
  br i1 %.not.i, label %lookup_rowtype_tupdesc_noerror.exit.thread, label %14

14:                                               ; preds = %8
  %15 = getelementptr inbounds nuw i8, ptr %13, i64 12
  %16 = load i32, ptr %15, align 4
  %17 = icmp sgt i32 %16, -1
  br i1 %17, label %lookup_rowtype_tupdesc_noerror.exit.thread.sink.split, label %lookup_rowtype_tupdesc_noerror.exit.thread

18:                                               ; preds = %4
  %19 = getelementptr inbounds nuw i8, ptr %5, i64 264
  %20 = load ptr, ptr %19, align 8
  %21 = icmp ne ptr %20, null
  %brmerge = or i1 %2, %21
  br i1 %brmerge, label %lookup_rowtype_tupdesc_noerror.exit, label %22

22:                                               ; preds = %18
  %23 = tail call zeroext i1 @errstart_cold(i32 noundef 21, ptr noundef null) #17
  tail call void @llvm.assume(i1 %23)
  %24 = tail call i32 @errcode(i32 noundef 151027844) #16
  %25 = tail call ptr @format_type_be(i32 noundef %0) #16
  %26 = tail call i32 (ptr, ...) @errmsg(ptr noundef nonnull @.str.6, ptr noundef %25) #16
  tail call void @errfinish(ptr noundef nonnull @.str.3, i32 noundef 1999, ptr noundef nonnull @__func__.lookup_rowtype_tupdesc_domain) #16
  unreachable

27:                                               ; preds = %3
  %28 = tail call fastcc ptr @lookup_rowtype_tupdesc_internal(i32 noundef 2249, i32 noundef %1, i1 noundef zeroext %2)
  br label %lookup_rowtype_tupdesc_noerror.exit

lookup_rowtype_tupdesc_noerror.exit:              ; preds = %18, %27
  %.120 = phi ptr [ %28, %27 ], [ %20, %18 ]
  %.not24 = icmp eq ptr %.120, null
  br i1 %.not24, label %lookup_rowtype_tupdesc_noerror.exit.thread, label %29

29:                                               ; preds = %lookup_rowtype_tupdesc_noerror.exit
  %30 = getelementptr inbounds nuw i8, ptr %.120, i64 12
  %31 = load i32, ptr %30, align 4
  %32 = icmp sgt i32 %31, -1
  br i1 %32, label %lookup_rowtype_tupdesc_noerror.exit.thread.sink.split, label %lookup_rowtype_tupdesc_noerror.exit.thread

lookup_rowtype_tupdesc_noerror.exit.thread.sink.split: ; preds = %29, %14
  %.sink = phi ptr [ %13, %14 ], [ %.120, %29 ]
  tail call void @IncrTupleDescRefCount(ptr noundef nonnull %.sink) #16
  br label %lookup_rowtype_tupdesc_noerror.exit.thread

lookup_rowtype_tupdesc_noerror.exit.thread:       ; preds = %lookup_rowtype_tupdesc_noerror.exit.thread.sink.split, %8, %14, %lookup_rowtype_tupdesc_noerror.exit, %29
  %.1 = phi ptr [ %.120, %29 ], [ null, %lookup_rowtype_tupdesc_noerror.exit ], [ %13, %14 ], [ null, %8 ], [ %.sink, %lookup_rowtype_tupdesc_noerror.exit.thread.sink.split ]
  ret ptr %.1
}